; Function Attrs: mustprogress uwtable
define void @_ZN4File7TCreateEPKwj(ptr noundef nonnull align 8 dereferenceable(8256) %0, ptr noundef %1, i32 noundef %2) local_unnamed_addr #2 align 2 {
  %4 = alloca [2048 x i8], align 16
  call void @llvm.lifetime.start.p0(i64 2048, ptr nonnull %4)
  %5 = and i32 %2, 2
  %.not.i.i = icmp eq i32 %5, 0
  %6 = call noundef zeroext i1 @_Z10WideToCharPKwPcm(ptr noundef %1, ptr noundef nonnull %4, i64 noundef 2048)
  %7 = select i1 %.not.i.i, i32 578, i32 577
  %8 = call i32 (ptr, i32, ...) @open64(ptr noundef nonnull %4, i32 noundef %7, i32 noundef 438)
  %9 = sext i32 %8 to i64
  %10 = getelementptr inbounds i8, ptr %0, i64 8
  store i64 %9, ptr %10, align 8
  %11 = getelementptr inbounds i8, ptr %0, i64 32
  store i8 1, ptr %11, align 8
  %12 = getelementptr inbounds i8, ptr %0, i64 20
  store i32 0, ptr %12, align 4
  %13 = getelementptr inbounds i8, ptr %0, i64 25
  store i8 0, ptr %13, align 1
  %14 = getelementptr inbounds i8, ptr %0, i64 52
  call void @_Z8wcsncpyzPwPKwm(ptr noundef nonnull %14, ptr noundef %1, i64 noundef 2048)
  %15 = load i64, ptr %10, align 8
  %.not = icmp eq i64 %15, -1
  call void @llvm.lifetime.end.p0(i64 2048, ptr nonnull %4)
  br i1 %.not, label %16, label %_ZN4File7WCreateEPKwj.exit.thread

16:                                               ; preds = %3
  call void @_ZN12ErrorHandler14CreateErrorMsgEPKw(ptr noundef nonnull align 4 dereferenceable(14) @ErrHandler, ptr noundef %1)
  call void @_ZN12ErrorHandler4ExitE8RAR_EXIT(ptr noundef nonnull align 4 dereferenceable(14) @ErrHandler, i32 noundef 2)
  br label %_ZN4File7WCreateEPKwj.exit.thread

_ZN4File7WCreateEPKwj.exit.thread:                ; preds = %3, %16
  ret void
}